target datalayout = "e-m:e-p270:32:32-p271:32:32-p272:64:64-i64:64-i128:128-f80:128-n8:16:32:64-S128"
target triple = "x86_64-pc-linux-gnu"

%struct.BackendGlobalData = type <{ ptr, ptr, i8, i8, i8, i8, i8, i8, i8, i8, i8, [3 x i8], i32, ptr, ptr, ptr, ptr, ptr, ptr, ptr, ptr, ptr, ptr, ptr, ptr, ptr, i32, %struct.jvmtiCapabilities, i8, [3 x i8], %struct.jvmtiEventCallbacks, ptr, ptr, ptr, ptr, ptr, ptr, ptr, i32, [4 x i8], ptr, i64, i32, [4 x i8], ptr, i32, i32, i8, i8, [6 x i8] }>
%struct.jvmtiCapabilities = type { i64, i64 }
%struct.jvmtiEventCallbacks = type { ptr, ptr, ptr, ptr, ptr, ptr, ptr, ptr, ptr, ptr, ptr, ptr, ptr, ptr, ptr, ptr, ptr, ptr, ptr, ptr, ptr, ptr, ptr, ptr, ptr, ptr, ptr, ptr, ptr, ptr, ptr, ptr, ptr, ptr, ptr, ptr, ptr, ptr, ptr }
%struct.CommandSingle = type { i32, %union.anon.0 }
%union.anon.0 = type { %struct.EventCommandSingle }
%struct.EventCommandSingle = type { i8, i32, %struct.EventInfo }
%struct.EventInfo = type { i32, ptr, i8, ptr, ptr, i64, ptr, %union.anon.1 }
%union.anon.1 = type { %struct.anon.2 }
%struct.anon.2 = type { ptr, ptr, i8, %union.jvalue }
%union.jvalue = type { i64 }
%struct.FrameEventCommandSingle = type { i8, i32, i32, ptr, ptr, ptr, i64, i8, %union.jvalue }

@gdata = external global ptr, align 8
@.str.7 = private unnamed_addr constant [54 x i8] c"src/jdk.jdwp.agent/share/native/libjdwp/eventHelper.c\00", align 1
@stderr = external global ptr, align 8
@.str.12 = private unnamed_addr constant [17 x i8] c"JDWP exit error \00", align 1
@.str.13 = private unnamed_addr constant [2 x i8] c"\0A\00", align 1
@.str.14 = private unnamed_addr constant [19 x i8] c"%s(%d): %s [%s:%d]\00", align 1
@.str.15 = private unnamed_addr constant [17 x i8] c"bagAdd(eventBag)\00", align 1
@.str.16 = private unnamed_addr constant [24 x i8] c"err == JVMTI_ERROR_NONE\00", align 1
@.str.36 = private unnamed_addr constant [52 x i8] c"src/jdk.jdwp.agent/share/native/libjdwp/signature.h\00", align 1
@.str.37 = private unnamed_addr constant [28 x i8] c"Tag is not a JVM basic type\00", align 1

; Function Attrs: nounwind uwtable
define internal zeroext i8 @isReferenceTag(i8 noundef signext %0) #0 {
  %2 = alloca i8, align 1
  store i8 %0, ptr %2, align 1
  br label %3

3:                                                ; preds = %1
  %4 = load ptr, ptr @gdata, align 8
  %5 = icmp ne ptr %4, null
  br i1 %5, label %6, label %57

6:                                                ; preds = %3
  %7 = load ptr, ptr @gdata, align 8
  %8 = getelementptr inbounds %struct.BackendGlobalData, ptr %7, i32 0, i32 3
  %9 = load i8, ptr %8, align 1
  %10 = zext i8 %9 to i32
  %11 = icmp ne i32 %10, 0
  br i1 %11, label %12, label %57

12:                                               ; preds = %6
  %13 = load i8, ptr %2, align 1
  %14 = sext i8 %13 to i32
  %15 = icmp eq i32 76, %14
  br i1 %15, label %57, label %16

16:                                               ; preds = %12
  %17 = load i8, ptr %2, align 1
  %18 = sext i8 %17 to i32
  %19 = icmp eq i32 91, %18
  br i1 %19, label %57, label %20

20:                                               ; preds = %16
  %21 = load i8, ptr %2, align 1
  %22 = sext i8 %21 to i32
  %23 = icmp eq i32 90, %22
  br i1 %23, label %57, label %24

24:                                               ; preds = %20
  %25 = load i8, ptr %2, align 1
  %26 = sext i8 %25 to i32
  %27 = icmp eq i32 66, %26
  br i1 %27, label %57, label %28

28:                                               ; preds = %24
  %29 = load i8, ptr %2, align 1
  %30 = sext i8 %29 to i32
  %31 = icmp eq i32 67, %30
  br i1 %31, label %57, label %32

32:                                               ; preds = %28
  %33 = load i8, ptr %2, align 1
  %34 = sext i8 %33 to i32
  %35 = icmp eq i32 68, %34
  br i1 %35, label %57, label %36

36:                                               ; preds = %32
  %37 = load i8, ptr %2, align 1
  %38 = sext i8 %37 to i32
  %39 = icmp eq i32 70, %38
  br i1 %39, label %57, label %40

40:                                               ; preds = %36
  %41 = load i8, ptr %2, align 1
  %42 = sext i8 %41 to i32
  %43 = icmp eq i32 73, %42
  br i1 %43, label %57, label %44

44:                                               ; preds = %40
  %45 = load i8, ptr %2, align 1
  %46 = sext i8 %45 to i32
  %47 = icmp eq i32 74, %46
  br i1 %47, label %57, label %48

48:                                               ; preds = %44
  %49 = load i8, ptr %2, align 1
  %50 = sext i8 %49 to i32
  %51 = icmp eq i32 83, %50
  br i1 %51, label %57, label %52

52:                                               ; preds = %48
  %53 = load i8, ptr %2, align 1
  %54 = sext i8 %53 to i32
  %55 = icmp eq i32 86, %54
  br i1 %55, label %57, label %56

56:                                               ; preds = %52
  call void @jdiAssertionFailed(ptr noundef @.str.36, i32 noundef 49, ptr noundef @.str.37)
  br label %57

57:                                               ; preds = %56, %52, %48, %44, %40, %36, %32, %28, %24, %20, %16, %12, %6, %3
  br label %58

58:                                               ; preds = %57
  %59 = load i8, ptr %2, align 1
  %60 = sext i8 %59 to i32
  %61 = icmp eq i32 %60, 76
  br i1 %61, label %66, label %62

62:                                               ; preds = %58
  %63 = load i8, ptr %2, align 1
  %64 = sext i8 %63 to i32
  %65 = icmp eq i32 %64, 91
  br label %66

66:                                               ; preds = %62, %58
  %67 = phi i1 [ true, %58 ], [ %65, %62 ]
  %68 = zext i1 %67 to i32
  %69 = trunc i32 %68 to i8
  ret i8 %69
}

; Function Attrs: nounwind uwtable
define hidden void @eventHelper_recordFrameEvent(i32 noundef %0, i8 noundef signext %1, i32 noundef %2, ptr noundef %3, ptr noundef %4, ptr noundef %5, i64 noundef %6, i32 noundef %7, i64 %8, ptr noundef %9) #0 {
  %11 = alloca %union.jvalue, align 8
  %12 = alloca i32, align 4
  %13 = alloca i8, align 1
  %14 = alloca i32, align 4
  %15 = alloca ptr, align 8
  %16 = alloca ptr, align 8
  %17 = alloca ptr, align 8
  %18 = alloca i64, align 8
  %19 = alloca i32, align 4
  %20 = alloca ptr, align 8
  %21 = alloca ptr, align 8
  %22 = alloca ptr, align 8
  %23 = alloca ptr, align 8
  %24 = alloca i32, align 4
  %25 = getelementptr inbounds %union.jvalue, ptr %11, i32 0, i32 0
  store i64 %8, ptr %25, align 8
  store i32 %0, ptr %12, align 4
  store i8 %1, ptr %13, align 1
  store i32 %2, ptr %14, align 4
  store ptr %3, ptr %15, align 8
  store ptr %4, ptr %16, align 8
  store ptr %5, ptr %17, align 8
  store i64 %6, ptr %18, align 8
  store i32 %7, ptr %19, align 4
  store ptr %9, ptr %20, align 8
  %26 = call ptr @getEnv()
  store ptr %26, ptr %21, align 8
  %27 = load ptr, ptr %20, align 8
  %28 = call ptr @bagAdd(ptr noundef %27)
  store ptr %28, ptr %23, align 8
  store i32 0, ptr %24, align 4
  %29 = load ptr, ptr %23, align 8
  %30 = icmp eq ptr %29, null
  br i1 %30, label %31, label %34

31:                                               ; preds = %10
  %32 = load ptr, ptr @stderr, align 8
  %33 = call ptr @jvmtiErrorText(i32 noundef 188)
  call void (ptr, ptr, ptr, ptr, ...) @print_message(ptr noundef %32, ptr noundef @.str.12, ptr noundef @.str.13, ptr noundef @.str.14, ptr noundef %33, i32 noundef 188, ptr noundef @.str.15, ptr noundef @.str.7, i32 noundef 1102)
  call void @debugInit_exit(i32 noundef 188, ptr noundef @.str.15)
  br label %34

34:                                               ; preds = %31, %10
  %35 = load ptr, ptr %23, align 8
  %36 = getelementptr inbounds %struct.CommandSingle, ptr %35, i32 0, i32 0
  store i32 13, ptr %36, align 8
  %37 = load ptr, ptr %23, align 8
  %38 = getelementptr inbounds %struct.CommandSingle, ptr %37, i32 0, i32 1
  store ptr %38, ptr %22, align 8
  %39 = load i8, ptr %13, align 1
  %40 = load ptr, ptr %22, align 8
  %41 = getelementptr inbounds %struct.FrameEventCommandSingle, ptr %40, i32 0, i32 0
  store i8 %39, ptr %41, align 8
  %42 = load i32, ptr %12, align 4
  %43 = load ptr, ptr %22, align 8
  %44 = getelementptr inbounds %struct.FrameEventCommandSingle, ptr %43, i32 0, i32 1
  store i32 %42, ptr %44, align 4
  %45 = load i32, ptr %14, align 4
  %46 = load ptr, ptr %22, align 8
  %47 = getelementptr inbounds %struct.FrameEventCommandSingle, ptr %46, i32 0, i32 2
  store i32 %45, ptr %47, align 8
  %48 = load ptr, ptr %21, align 8
  %49 = load ptr, ptr %15, align 8
  %50 = load ptr, ptr %22, align 8
  %51 = getelementptr inbounds %struct.FrameEventCommandSingle, ptr %50, i32 0, i32 3
  call void @saveGlobalRef(ptr noundef %48, ptr noundef %49, ptr noundef %51)
  %52 = load ptr, ptr %21, align 8
  %53 = load ptr, ptr %16, align 8
  %54 = load ptr, ptr %22, align 8
  %55 = getelementptr inbounds %struct.FrameEventCommandSingle, ptr %54, i32 0, i32 4
  call void @saveGlobalRef(ptr noundef %52, ptr noundef %53, ptr noundef %55)
  %56 = load ptr, ptr %17, align 8
  %57 = load ptr, ptr %22, align 8
  %58 = getelementptr inbounds %struct.FrameEventCommandSingle, ptr %57, i32 0, i32 5
  store ptr %56, ptr %58, align 8
  %59 = load i64, ptr %18, align 8
  %60 = load ptr, ptr %22, align 8
  %61 = getelementptr inbounds %struct.FrameEventCommandSingle, ptr %60, i32 0, i32 6
  store i64 %59, ptr %61, align 8
  %62 = load i32, ptr %19, align 4
  %63 = icmp ne i32 %62, 0
  br i1 %63, label %64, label %102

64:                                               ; preds = %34
  %65 = load ptr, ptr %17, align 8
  %66 = load ptr, ptr %22, align 8
  %67 = getelementptr inbounds %struct.FrameEventCommandSingle, ptr %66, i32 0, i32 7
  %68 = call i32 @methodReturnType(ptr noundef %65, ptr noundef %67)
  store i32 %68, ptr %24, align 4
  br label %69

69:                                               ; preds = %64
  %70 = load ptr, ptr @gdata, align 8
  %71 = icmp ne ptr %70, null
  br i1 %71, label %72, label %82

72:                                               ; preds = %69
  %73 = load ptr, ptr @gdata, align 8
  %74 = getelementptr inbounds %struct.BackendGlobalData, ptr %73, i32 0, i32 3
  %75 = load i8, ptr %74, align 1
  %76 = zext i8 %75 to i32
  %77 = icmp ne i32 %76, 0
  br i1 %77, label %78, label %82

78:                                               ; preds = %72
  %79 = load i32, ptr %24, align 4
  %80 = icmp eq i32 %79, 0
  br i1 %80, label %82, label %81

81:                                               ; preds = %78
  call void @jdiAssertionFailed(ptr noundef @.str.7, i32 noundef 1116, ptr noundef @.str.16)
  br label %82

82:                                               ; preds = %81, %78, %72, %69
  br label %83

83:                                               ; preds = %82
  %84 = load ptr, ptr %22, align 8
  %85 = getelementptr inbounds %struct.FrameEventCommandSingle, ptr %84, i32 0, i32 7
  %86 = load i8, ptr %85, align 8
  %87 = call zeroext i8 @isReferenceTag(i8 noundef signext %86)
  %88 = zext i8 %87 to i32
  %89 = icmp ne i32 %88, 0
  br i1 %89, label %90, label %98

90:                                               ; preds = %83
  %91 = load ptr, ptr %11, align 8
  %92 = icmp ne ptr %91, null
  br i1 %92, label %93, label %98

93:                                               ; preds = %90
  %94 = load ptr, ptr %21, align 8
  %95 = load ptr, ptr %11, align 8
  %96 = load ptr, ptr %22, align 8
  %97 = getelementptr inbounds %struct.FrameEventCommandSingle, ptr %96, i32 0, i32 8
  call void @saveGlobalRef(ptr noundef %94, ptr noundef %95, ptr noundef %97)
  br label %101

98:                                               ; preds = %90, %83
  %99 = load ptr, ptr %22, align 8
  %100 = getelementptr inbounds %struct.FrameEventCommandSingle, ptr %99, i32 0, i32 8
  call void @llvm.memcpy.p0.p0.i64(ptr align 8 %100, ptr align 8 %11, i64 8, i1 false)
  br label %101

101:                                              ; preds = %98, %93
  br label %105

102:                                              ; preds = %34
  %103 = load ptr, ptr %22, align 8
  %104 = getelementptr inbounds %struct.FrameEventCommandSingle, ptr %103, i32 0, i32 7
  store i8 0, ptr %104, align 8
  br label %105

105:                                              ; preds = %102, %101
  ret void
}