; Function Attrs: nounwind uwtable
define hidden void @eventHelper_recordFrameEvent(i32 noundef %0, i8 noundef signext %1, i32 noundef %2, ptr noundef %3, ptr noundef %4, ptr noundef %5, i64 noundef %6, i32 noundef %7, i64 %8, ptr noundef %9) local_unnamed_addr #0 {
  %11 = tail call ptr @getEnv() #9
  %12 = tail call ptr @bagAdd(ptr noundef %9) #9
  %13 = icmp eq ptr %12, null
  br i1 %13, label %14, label %17

14:                                               ; preds = %10
  %15 = load ptr, ptr @stderr, align 8
  %16 = tail call ptr @jvmtiErrorText(i32 noundef 188) #9
  tail call void (ptr, ptr, ptr, ptr, ...) @print_message(ptr noundef %15, ptr noundef nonnull @.str.12, ptr noundef nonnull @.str.13, ptr noundef nonnull @.str.14, ptr noundef %16, i32 noundef 188, ptr noundef nonnull @.str.15, ptr noundef nonnull @.str.7, i32 noundef 1102) #9
  tail call void @debugInit_exit(i32 noundef 188, ptr noundef nonnull @.str.15) #9
  br label %17

17:                                               ; preds = %14, %10
  store i32 13, ptr %12, align 8
  %18 = getelementptr inbounds i8, ptr %12, i64 8
  store i8 %1, ptr %18, align 8
  %19 = getelementptr inbounds i8, ptr %12, i64 12
  store i32 %0, ptr %19, align 4
  %20 = getelementptr inbounds i8, ptr %12, i64 16
  store i32 %2, ptr %20, align 8
  %21 = getelementptr inbounds i8, ptr %12, i64 24
  tail call void @saveGlobalRef(ptr noundef %11, ptr noundef %3, ptr noundef nonnull %21) #9
  %22 = getelementptr inbounds i8, ptr %12, i64 32
  tail call void @saveGlobalRef(ptr noundef %11, ptr noundef %4, ptr noundef nonnull %22) #9
  %23 = getelementptr inbounds i8, ptr %12, i64 40
  store ptr %5, ptr %23, align 8
  %24 = getelementptr inbounds i8, ptr %12, i64 48
  store i64 %6, ptr %24, align 8
  %.not = icmp eq i32 %7, 0
  %25 = getelementptr inbounds i8, ptr %12, i64 56
  br i1 %.not, label %56, label %26

26:                                               ; preds = %17
  %27 = tail call i32 @methodReturnType(ptr noundef %5, ptr noundef nonnull %25) #9
  %28 = load ptr, ptr @gdata, align 8
  %.not33 = icmp eq ptr %28, null
  br i1 %.not33, label %.thread, label %30

.thread:                                          ; preds = %26
  %29 = load i8, ptr %25, align 8
  br label %isReferenceTag.exit

30:                                               ; preds = %26
  %31 = getelementptr inbounds i8, ptr %28, i64 17
  %32 = load i8, ptr %31, align 1
  %33 = icmp eq i8 %32, 0
  %34 = icmp eq i32 %27, 0
  %or.cond = select i1 %33, i1 true, i1 %34
  br i1 %or.cond, label %.thread36, label %36

.thread36:                                        ; preds = %30
  %35 = load i8, ptr %25, align 8
  br label %38

36:                                               ; preds = %30
  tail call void @jdiAssertionFailed(ptr noundef nonnull @.str.7, i32 noundef 1116, ptr noundef nonnull @.str.16) #9
  %.pr.pre = load ptr, ptr @gdata, align 8
  %37 = load i8, ptr %25, align 8
  %.not.i = icmp eq ptr %.pr.pre, null
  br i1 %.not.i, label %isReferenceTag.exit, label %38

38:                                               ; preds = %.thread36, %36
  %39 = phi i8 [ %35, %.thread36 ], [ %37, %36 ]
  %.pr39 = phi ptr [ %28, %.thread36 ], [ %.pr.pre, %36 ]
  %40 = getelementptr inbounds i8, ptr %.pr39, i64 17
  %41 = load i8, ptr %40, align 1
  %.fr.i = freeze i8 %41
  %42 = icmp eq i8 %.fr.i, 0
  br i1 %42, label %isReferenceTag.exit, label %switch.early.test.i

switch.early.test.i:                              ; preds = %38
  %switch.tableidx = add i8 %39, -66
  %43 = icmp ult i8 %switch.tableidx, 26
  br i1 %43, label %switch.hole_check, label %44

44:                                               ; preds = %switch.hole_check, %switch.early.test.i
  tail call void @jdiAssertionFailed(ptr noundef nonnull @.str.36, i32 noundef 49, ptr noundef nonnull @.str.37) #9
  br label %isReferenceTag.exit

switch.hole_check:                                ; preds = %switch.early.test.i
  %switch.maskindex = zext nneg i8 %switch.tableidx to i32
  %switch.shifted = lshr i32 51512727, %switch.maskindex
  %switch.lobit = trunc i32 %switch.shifted to i1
  br i1 %switch.lobit, label %switch.lookup, label %44

switch.lookup:                                    ; preds = %switch.hole_check
  %45 = zext nneg i8 %switch.tableidx to i64
  %switch.gep = getelementptr inbounds [26 x i8], ptr @switch.table.eventHelper_recordFrameEvent, i64 0, i64 %45
  %switch.load = load i8, ptr %switch.gep, align 1
  br label %isReferenceTag.exit

isReferenceTag.exit:                              ; preds = %switch.lookup, %.thread, %36, %38, %44
  %46 = phi i8 [ %29, %.thread ], [ %37, %36 ], [ %39, %38 ], [ %39, %44 ], [ %switch.load, %switch.lookup ]
  %47 = icmp eq i8 %46, 76
  %48 = icmp eq i8 %46, 91
  %49 = or i1 %47, %48
  %50 = icmp ne i64 %8, 0
  %or.cond3 = select i1 %49, i1 %50, i1 false
  br i1 %or.cond3, label %51, label %54

51:                                               ; preds = %isReferenceTag.exit
  %52 = inttoptr i64 %8 to ptr
  %53 = getelementptr inbounds i8, ptr %12, i64 64
  tail call void @saveGlobalRef(ptr noundef %11, ptr noundef nonnull %52, ptr noundef nonnull %53) #9
  br label %57

54:                                               ; preds = %isReferenceTag.exit
  %55 = getelementptr inbounds i8, ptr %12, i64 64
  store i64 %8, ptr %55, align 8
  br label %57

56:                                               ; preds = %17
  store i8 0, ptr %25, align 8
  br label %57

57:                                               ; preds = %51, %54, %56
  ret void
}